; Function Attrs: mustprogress nofree norecurse nosync nounwind willreturn memory(read, inaccessiblemem: none) uwtable
define dso_local noundef nonnull align 4 dereferenceable(16) ptr @_ZNK16b3GpuNarrowPhase16getCollidableCpuEi(ptr noundef nonnull readonly align 8 captures(none) dereferenceable(56) %0, i32 noundef %1) local_unnamed_addr #13 align 2 {
  %3 = getelementptr inbounds nuw i8, ptr %0, i64 8
  %4 = load ptr, ptr %3, align 8, !tbaa !7
  %5 = getelementptr inbounds nuw i8, ptr %4, i64 392
  %6 = load ptr, ptr %5, align 8, !tbaa !122
  %7 = sext i32 %1 to i64
  %8 = getelementptr inbounds %struct.b3Collidable, ptr %6, i64 %7
  ret ptr %8
}